target datalayout = "e-m:e-p270:32:32-p271:32:32-p272:64:64-i64:64-i128:128-f80:128-n8:16:32:64-S128"
target triple = "x86_64-pc-linux-gnu"

%struct.luaL_Buffer = type { ptr, i32, ptr, [8192 x i8] }

; Function Attrs: nounwind uwtable
define dso_local void @luaL_addlstring(ptr noundef %0, ptr noundef %1, i64 noundef %2) #0 {
  %4 = alloca ptr, align 8
  %5 = alloca ptr, align 8
  %6 = alloca i64, align 8
  store ptr %0, ptr %4, align 8, !tbaa !39
  store ptr %1, ptr %5, align 8, !tbaa !11
  store i64 %2, ptr %6, align 8, !tbaa !23
  br label %7

7:                                                ; preds = %23, %3
  %8 = load i64, ptr %6, align 8, !tbaa !23
  %9 = add i64 %8, -1
  store i64 %9, ptr %6, align 8, !tbaa !23
  %10 = icmp ne i64 %8, 0
  br i1 %10, label %11, label %31

11:                                               ; preds = %7
  %12 = load ptr, ptr %4, align 8, !tbaa !39
  %13 = getelementptr inbounds nuw %struct.luaL_Buffer, ptr %12, i32 0, i32 0
  %14 = load ptr, ptr %13, align 8, !tbaa !43
  %15 = load ptr, ptr %4, align 8, !tbaa !39
  %16 = getelementptr inbounds nuw %struct.luaL_Buffer, ptr %15, i32 0, i32 3
  %17 = getelementptr inbounds [8192 x i8], ptr %16, i64 0, i64 0
  %18 = getelementptr inbounds i8, ptr %17, i64 8192
  %19 = icmp ult ptr %14, %18
  br i1 %19, label %23, label %20

20:                                               ; preds = %11
  %21 = load ptr, ptr %4, align 8, !tbaa !39
  %22 = call ptr @luaL_prepbuffer(ptr noundef %21)
  br label %23

23:                                               ; preds = %20, %11
  %24 = load ptr, ptr %5, align 8, !tbaa !11
  %25 = getelementptr inbounds nuw i8, ptr %24, i32 1
  store ptr %25, ptr %5, align 8, !tbaa !11
  %26 = load i8, ptr %24, align 1, !tbaa !36
  %27 = load ptr, ptr %4, align 8, !tbaa !39
  %28 = getelementptr inbounds nuw %struct.luaL_Buffer, ptr %27, i32 0, i32 0
  %29 = load ptr, ptr %28, align 8, !tbaa !43
  %30 = getelementptr inbounds nuw i8, ptr %29, i32 1
  store ptr %30, ptr %28, align 8, !tbaa !43
  store i8 %26, ptr %29, align 1, !tbaa !36
  br label %7, !llvm.loop !45

31:                                               ; preds = %7
  ret void
}