; Function Attrs: nounwind uwtable
define dso_local void @luaL_addlstring(ptr noundef %0, ptr noundef readonly captures(none) %1, i64 noundef %2) local_unnamed_addr #0 {
  %.not6 = icmp eq i64 %2, 0
  br i1 %.not6, label %._crit_edge, label %.lr.ph

.lr.ph:                                           ; preds = %3
  %4 = getelementptr inbounds nuw i8, ptr %0, i64 8216
  br label %5

5:                                                ; preds = %.lr.ph, %11
  %.in = phi i64 [ %2, %.lr.ph ], [ %6, %11 ]
  %.057 = phi ptr [ %1, %.lr.ph ], [ %13, %11 ]
  %6 = add i64 %.in, -1
  %7 = load ptr, ptr %0, align 8, !tbaa !29
  %8 = icmp ult ptr %7, %4
  br i1 %8, label %11, label %9

9:                                                ; preds = %5
  %10 = tail call ptr @luaL_prepbuffer(ptr noundef nonnull %0)
  %.pre = load ptr, ptr %0, align 8, !tbaa !29
  br label %11

11:                                               ; preds = %9, %5
  %12 = phi ptr [ %.pre, %9 ], [ %7, %5 ]
  %13 = getelementptr inbounds nuw i8, ptr %.057, i64 1
  %14 = load i8, ptr %.057, align 1, !tbaa !24
  %15 = getelementptr inbounds nuw i8, ptr %12, i64 1
  store ptr %15, ptr %0, align 8, !tbaa !29
  store i8 %14, ptr %12, align 1, !tbaa !24
  %.not = icmp eq i64 %6, 0
  br i1 %.not, label %._crit_edge, label %5, !llvm.loop !32

._crit_edge:                                      ; preds = %11, %3
  ret void
}